target datalayout = "e-m:e-p270:32:32-p271:32:32-p272:64:64-i64:64-i128:128-f80:128-n8:16:32:64-S128"
target triple = "x86_64-pc-linux-gnu"

%"class.spacer::convex_closure" = type { %"struct.spacer::convex_closure::stats", ptr, %class.arith_util, %class.bv_util, i32, i8, i32, %"class.spacer::spacer_matrix", %class.ref_vector, %class.vector.1, %"class.spacer::spacer_arith_kernel", %class.ref_vector, %class.ref_vector, %class.ref_vector }
%"struct.spacer::convex_closure::stats" = type { i32, i32, %class.stopwatch }
%class.stopwatch = type <{ %"class.std::chrono::time_point", %"class.std::chrono::duration", i8, [7 x i8] }>
%"class.std::chrono::time_point" = type { %"class.std::chrono::duration" }
%"class.std::chrono::duration" = type { i64 }
%class.arith_util = type { ptr, ptr }
%class.bv_util = type { %class.bv_recognizers, ptr, ptr }
%class.bv_recognizers = type { i32 }
%"class.spacer::spacer_matrix" = type { i32, i32, %class.vector }
%class.vector = type { ptr }
%class.vector.1 = type { ptr }
%"class.spacer::spacer_arith_kernel" = type { ptr, %"struct.spacer::spacer_arith_kernel::stats", ptr, %"class.spacer::spacer_matrix", %class.vector.2, %class.scoped_ptr }
%"struct.spacer::spacer_arith_kernel::stats" = type { i32 }
%class.vector.2 = type { ptr }
%class.scoped_ptr = type { ptr }
%class.ref_vector = type { %class.ref_vector_core }
%class.ref_vector_core = type { %class.ref_manager_wrapper, %class.ptr_vector }
%class.ref_manager_wrapper = type { ptr }
%class.ptr_vector = type { %class.vector.0 }
%class.vector.0 = type { ptr }
%"class.std::chrono::duration.37" = type { i64 }

@.str = private unnamed_addr constant [38 x i8] c"time.spacer.solve.reach.gen.global.cc\00", align 1
@.str.1 = private unnamed_addr constant [36 x i8] c"SPACER cc num dim reduction success\00", align 1
@.str.2 = private unnamed_addr constant [26 x i8] c"SPACER cc max reduced dim\00", align 1
@.str.8 = private unnamed_addr constant [27 x i8] c"SPACER arith kernel failed\00", align 1

; Function Attrs: mustprogress nounwind uwtable
define linkonce_odr hidden void @_ZNSt6chrono8durationIlSt5ratioILl1ELl1000000000EEEC2IlvEERKT_(ptr noundef nonnull align 8 dereferenceable(8) %0, ptr noundef nonnull align 8 dereferenceable(8) %1) unnamed_addr #5 comdat align 2 {
  %3 = alloca ptr, align 8
  %4 = alloca ptr, align 8
  store ptr %0, ptr %3, align 8, !tbaa !140
  store ptr %1, ptr %4, align 8, !tbaa !142
  %5 = load ptr, ptr %3, align 8
  %6 = getelementptr inbounds nuw %"class.std::chrono::duration", ptr %5, i32 0, i32 0
  %7 = load ptr, ptr %4, align 8, !tbaa !142
  %8 = load i64, ptr %7, align 8, !tbaa !139
  store i64 %8, ptr %6, align 8, !tbaa !144
  ret void
}

; Function Attrs: mustprogress nounwind uwtable
define linkonce_odr hidden void @_ZNSt6chrono8durationIlSt5ratioILl1ELl1000EEEC2IlvEERKT_(ptr noundef nonnull align 8 dereferenceable(8) %0, ptr noundef nonnull align 8 dereferenceable(8) %1) unnamed_addr #5 comdat align 2 {
  %3 = alloca ptr, align 8
  %4 = alloca ptr, align 8
  store ptr %0, ptr %3, align 8, !tbaa !170
  store ptr %1, ptr %4, align 8, !tbaa !142
  %5 = load ptr, ptr %3, align 8
  %6 = getelementptr inbounds nuw %"class.std::chrono::duration.37", ptr %5, i32 0, i32 0
  %7 = load ptr, ptr %4, align 8, !tbaa !142
  %8 = load i64, ptr %7, align 8, !tbaa !139
  store i64 %8, ptr %6, align 8, !tbaa !172
  ret void
}

; Function Attrs: mustprogress nounwind uwtable
define linkonce_odr hidden noundef i64 @_ZNKSt6chrono8durationIlSt5ratioILl1ELl1000000000EEE5countEv(ptr noundef nonnull align 8 dereferenceable(8) %0) #5 comdat align 2 {
  %2 = alloca ptr, align 8
  store ptr %0, ptr %2, align 8, !tbaa !140
  %3 = load ptr, ptr %2, align 8
  %4 = getelementptr inbounds nuw %"class.std::chrono::duration", ptr %3, i32 0, i32 0
  %5 = load i64, ptr %4, align 8, !tbaa !144
  ret i64 %5
}

; Function Attrs: mustprogress uwtable
define linkonce_odr i64 @_ZNSt6chronomiIlSt5ratioILl1ELl1000000000EElS2_EENSt11common_typeIJNS_8durationIT_T0_EENS4_IT1_T2_EEEE4typeERKS7_RKSA_(ptr noundef nonnull align 8 dereferenceable(8) %0, ptr noundef nonnull align 8 dereferenceable(8) %1) #4 comdat {
  %3 = alloca %"class.std::chrono::duration", align 8
  %4 = alloca ptr, align 8
  %5 = alloca ptr, align 8
  %6 = alloca i64, align 8
  %7 = alloca %"class.std::chrono::duration", align 8
  %8 = alloca %"class.std::chrono::duration", align 8
  store ptr %0, ptr %4, align 8, !tbaa !140
  store ptr %1, ptr %5, align 8, !tbaa !140
  call void @llvm.lifetime.start.p0(i64 8, ptr %6) #3
  call void @llvm.lifetime.start.p0(i64 8, ptr %7) #3
  %9 = load ptr, ptr %4, align 8, !tbaa !140
  call void @llvm.memcpy.p0.p0.i64(ptr align 8 %7, ptr align 8 %9, i64 8, i1 false), !tbaa.struct !138
  %10 = call noundef i64 @_ZNKSt6chrono8durationIlSt5ratioILl1ELl1000000000EEE5countEv(ptr noundef nonnull align 8 dereferenceable(8) %7)
  call void @llvm.lifetime.start.p0(i64 8, ptr %8) #3
  %11 = load ptr, ptr %5, align 8, !tbaa !140
  call void @llvm.memcpy.p0.p0.i64(ptr align 8 %8, ptr align 8 %11, i64 8, i1 false), !tbaa.struct !138
  %12 = call noundef i64 @_ZNKSt6chrono8durationIlSt5ratioILl1ELl1000000000EEE5countEv(ptr noundef nonnull align 8 dereferenceable(8) %8)
  %13 = sub nsw i64 %10, %12
  store i64 %13, ptr %6, align 8, !tbaa !139
  call void @_ZNSt6chrono8durationIlSt5ratioILl1ELl1000000000EEEC2IlvEERKT_(ptr noundef nonnull align 8 dereferenceable(8) %3, ptr noundef nonnull align 8 dereferenceable(8) %6)
  call void @llvm.lifetime.end.p0(i64 8, ptr %8) #3
  call void @llvm.lifetime.end.p0(i64 8, ptr %7) #3
  call void @llvm.lifetime.end.p0(i64 8, ptr %6) #3
  %14 = getelementptr inbounds nuw %"class.std::chrono::duration", ptr %3, i32 0, i32 0
  %15 = load i64, ptr %14, align 8
  ret i64 %15
}

; Function Attrs: mustprogress nounwind uwtable
define linkonce_odr hidden i64 @_ZNKSt6chrono10time_pointINS_3_V212steady_clockENS_8durationIlSt5ratioILl1ELl1000000000EEEEE16time_since_epochEv(ptr noundef nonnull align 8 dereferenceable(8) %0) #5 comdat align 2 {
  %2 = alloca %"class.std::chrono::duration", align 8
  %3 = alloca ptr, align 8
  store ptr %0, ptr %3, align 8, !tbaa !136
  %4 = load ptr, ptr %3, align 8
  %5 = getelementptr inbounds nuw %"class.std::chrono::time_point", ptr %4, i32 0, i32 0
  call void @llvm.memcpy.p0.p0.i64(ptr align 8 %2, ptr align 8 %5, i64 8, i1 false), !tbaa.struct !138
  %6 = getelementptr inbounds nuw %"class.std::chrono::duration", ptr %2, i32 0, i32 0
  %7 = load i64, ptr %6, align 8
  ret i64 %7
}

; Function Attrs: mustprogress uwtable
define linkonce_odr hidden i64 @_ZNSt6chrono20__duration_cast_implINS_8durationIlSt5ratioILl1ELl1000EEEES2_ILl1ELl1000000EElLb1ELb0EE6__castIlS2_ILl1ELl1000000000EEEES4_RKNS1_IT_T0_EE(ptr noundef nonnull align 8 dereferenceable(8) %0) #4 comdat align 2 {
  %2 = alloca %"class.std::chrono::duration.37", align 8
  %3 = alloca ptr, align 8
  %4 = alloca i64, align 8
  store ptr %0, ptr %3, align 8, !tbaa !140
  call void @llvm.lifetime.start.p0(i64 8, ptr %4) #3
  %5 = load ptr, ptr %3, align 8, !tbaa !140
  %6 = call noundef i64 @_ZNKSt6chrono8durationIlSt5ratioILl1ELl1000000000EEE5countEv(ptr noundef nonnull align 8 dereferenceable(8) %5)
  %7 = sdiv i64 %6, 1000000
  store i64 %7, ptr %4, align 8, !tbaa !139
  call void @_ZNSt6chrono8durationIlSt5ratioILl1ELl1000EEEC2IlvEERKT_(ptr noundef nonnull align 8 dereferenceable(8) %2, ptr noundef nonnull align 8 dereferenceable(8) %4)
  call void @llvm.lifetime.end.p0(i64 8, ptr %4) #3
  %8 = getelementptr inbounds nuw %"class.std::chrono::duration.37", ptr %2, i32 0, i32 0
  %9 = load i64, ptr %8, align 8
  ret i64 %9
}

; Function Attrs: mustprogress nounwind uwtable
define linkonce_odr hidden noundef nonnull align 8 dereferenceable(8) ptr @_ZNSt6chrono8durationIlSt5ratioILl1ELl1000000000EEEpLERKS3_(ptr noundef nonnull align 8 dereferenceable(8) %0, ptr noundef nonnull align 8 dereferenceable(8) %1) #5 comdat align 2 {
  %3 = alloca ptr, align 8
  %4 = alloca ptr, align 8
  store ptr %0, ptr %3, align 8, !tbaa !140
  store ptr %1, ptr %4, align 8, !tbaa !140
  %5 = load ptr, ptr %3, align 8
  %6 = load ptr, ptr %4, align 8, !tbaa !140
  %7 = call noundef i64 @_ZNKSt6chrono8durationIlSt5ratioILl1ELl1000000000EEE5countEv(ptr noundef nonnull align 8 dereferenceable(8) %6)
  %8 = getelementptr inbounds nuw %"class.std::chrono::duration", ptr %5, i32 0, i32 0
  %9 = load i64, ptr %8, align 8, !tbaa !144
  %10 = add nsw i64 %9, %7
  store i64 %10, ptr %8, align 8, !tbaa !144
  ret ptr %5
}

; Function Attrs: mustprogress uwtable
define linkonce_odr i64 @_ZNSt6chronomiINS_3_V212steady_clockENS_8durationIlSt5ratioILl1ELl1000000000EEEES6_EENSt11common_typeIJT0_T1_EE4typeERKNS_10time_pointIT_S8_EERKNSC_ISD_S9_EE(ptr noundef nonnull align 8 dereferenceable(8) %0, ptr noundef nonnull align 8 dereferenceable(8) %1) #4 comdat {
  %3 = alloca %"class.std::chrono::duration", align 8
  %4 = alloca ptr, align 8
  %5 = alloca ptr, align 8
  %6 = alloca %"class.std::chrono::duration", align 8
  %7 = alloca %"class.std::chrono::duration", align 8
  store ptr %0, ptr %4, align 8, !tbaa !136
  store ptr %1, ptr %5, align 8, !tbaa !136
  call void @llvm.lifetime.start.p0(i64 8, ptr %6) #3
  %8 = load ptr, ptr %4, align 8, !tbaa !136
  %9 = call i64 @_ZNKSt6chrono10time_pointINS_3_V212steady_clockENS_8durationIlSt5ratioILl1ELl1000000000EEEEE16time_since_epochEv(ptr noundef nonnull align 8 dereferenceable(8) %8)
  %10 = getelementptr inbounds nuw %"class.std::chrono::duration", ptr %6, i32 0, i32 0
  store i64 %9, ptr %10, align 8
  call void @llvm.lifetime.start.p0(i64 8, ptr %7) #3
  %11 = load ptr, ptr %5, align 8, !tbaa !136
  %12 = call i64 @_ZNKSt6chrono10time_pointINS_3_V212steady_clockENS_8durationIlSt5ratioILl1ELl1000000000EEEEE16time_since_epochEv(ptr noundef nonnull align 8 dereferenceable(8) %11)
  %13 = getelementptr inbounds nuw %"class.std::chrono::duration", ptr %7, i32 0, i32 0
  store i64 %12, ptr %13, align 8
  %14 = call i64 @_ZNSt6chronomiIlSt5ratioILl1ELl1000000000EElS2_EENSt11common_typeIJNS_8durationIT_T0_EENS4_IT1_T2_EEEE4typeERKS7_RKSA_(ptr noundef nonnull align 8 dereferenceable(8) %6, ptr noundef nonnull align 8 dereferenceable(8) %7)
  %15 = getelementptr inbounds nuw %"class.std::chrono::duration", ptr %3, i32 0, i32 0
  store i64 %14, ptr %15, align 8
  call void @llvm.lifetime.end.p0(i64 8, ptr %7) #3
  call void @llvm.lifetime.end.p0(i64 8, ptr %6) #3
  %16 = getelementptr inbounds nuw %"class.std::chrono::duration", ptr %3, i32 0, i32 0
  %17 = load i64, ptr %16, align 8
  ret i64 %17
}

; Function Attrs: mustprogress nounwind uwtable
define linkonce_odr hidden i64 @_ZN9stopwatch3getEv() #5 comdat align 2 {
  %1 = alloca %"class.std::chrono::time_point", align 8
  %2 = call i64 @_ZNSt6chrono3_V212steady_clock3nowEv() #3
  %3 = getelementptr inbounds nuw %"class.std::chrono::time_point", ptr %1, i32 0, i32 0
  %4 = getelementptr inbounds nuw %"class.std::chrono::duration", ptr %3, i32 0, i32 0
  store i64 %2, ptr %4, align 8
  %5 = getelementptr inbounds nuw %"class.std::chrono::time_point", ptr %1, i32 0, i32 0
  %6 = getelementptr inbounds nuw %"class.std::chrono::duration", ptr %5, i32 0, i32 0
  %7 = load i64, ptr %6, align 8
  ret i64 %7
}

; Function Attrs: mustprogress nounwind uwtable
define linkonce_odr hidden noundef ptr @_ZNK10scoped_ptrIN6spacer19spacer_arith_kernel6pluginEEptEv(ptr noundef nonnull align 8 dereferenceable(8) %0) #5 comdat align 2 {
  %2 = alloca ptr, align 8
  store ptr %0, ptr %2, align 8, !tbaa !147
  %3 = load ptr, ptr %2, align 8
  %4 = getelementptr inbounds nuw %class.scoped_ptr, ptr %3, i32 0, i32 0
  %5 = load ptr, ptr %4, align 8, !tbaa !149
  ret ptr %5
}

; Function Attrs: mustprogress nounwind uwtable
define linkonce_odr hidden noundef zeroext i1 @_ZNK10scoped_ptrIN6spacer19spacer_arith_kernel6pluginEEcvbEv(ptr noundef nonnull align 8 dereferenceable(8) %0) #5 comdat align 2 {
  %2 = alloca ptr, align 8
  store ptr %0, ptr %2, align 8, !tbaa !147
  %3 = load ptr, ptr %2, align 8
  %4 = getelementptr inbounds nuw %class.scoped_ptr, ptr %3, i32 0, i32 0
  %5 = load ptr, ptr %4, align 8, !tbaa !149
  %6 = icmp ne ptr %5, null
  ret i1 %6
}

; Function Attrs: mustprogress nounwind uwtable
define linkonce_odr hidden noundef i64 @_ZNKSt6chrono8durationIlSt5ratioILl1ELl1000EEE5countEv(ptr noundef nonnull align 8 dereferenceable(8) %0) #5 comdat align 2 {
  %2 = alloca ptr, align 8
  store ptr %0, ptr %2, align 8, !tbaa !170
  %3 = load ptr, ptr %2, align 8
  %4 = getelementptr inbounds nuw %"class.std::chrono::duration.37", ptr %3, i32 0, i32 0
  %5 = load i64, ptr %4, align 8, !tbaa !172
  ret i64 %5
}

; Function Attrs: mustprogress uwtable
define linkonce_odr i64 @_ZNSt6chrono13duration_castINS_8durationIlSt5ratioILl1ELl1000EEEElS2_ILl1ELl1000000000EEEENSt9enable_ifIXsr13__is_durationIT_EE5valueES7_E4typeERKNS1_IT0_T1_EE(ptr noundef nonnull align 8 dereferenceable(8) %0) #4 comdat {
  %2 = alloca %"class.std::chrono::duration.37", align 8
  %3 = alloca ptr, align 8
  store ptr %0, ptr %3, align 8, !tbaa !140
  %4 = load ptr, ptr %3, align 8, !tbaa !140
  %5 = call i64 @_ZNSt6chrono20__duration_cast_implINS_8durationIlSt5ratioILl1ELl1000EEEES2_ILl1ELl1000000EElLb1ELb0EE6__castIlS2_ILl1ELl1000000000EEEES4_RKNS1_IT_T0_EE(ptr noundef nonnull align 8 dereferenceable(8) %4)
  %6 = getelementptr inbounds nuw %"class.std::chrono::duration.37", ptr %2, i32 0, i32 0
  store i64 %5, ptr %6, align 8
  %7 = getelementptr inbounds nuw %"class.std::chrono::duration.37", ptr %2, i32 0, i32 0
  %8 = load i64, ptr %7, align 8
  ret i64 %8
}

; Function Attrs: mustprogress nounwind uwtable
define linkonce_odr hidden void @_ZN9stopwatch5startEv(ptr noundef nonnull align 8 dereferenceable(17) %0) #5 comdat align 2 {
  %2 = alloca ptr, align 8
  %3 = alloca %"class.std::chrono::time_point", align 8
  store ptr %0, ptr %2, align 8, !tbaa !72
  %4 = load ptr, ptr %2, align 8
  %5 = getelementptr inbounds nuw %class.stopwatch, ptr %4, i32 0, i32 2
  %6 = load i8, ptr %5, align 8, !tbaa !74, !range !66, !noundef !67
  %7 = trunc i8 %6 to i1
  br i1 %7, label %14, label %8

8:                                                ; preds = %1
  call void @llvm.lifetime.start.p0(i64 8, ptr %3) #3
  %9 = call i64 @_ZN9stopwatch3getEv()
  %10 = getelementptr inbounds nuw %"class.std::chrono::time_point", ptr %3, i32 0, i32 0
  %11 = getelementptr inbounds nuw %"class.std::chrono::duration", ptr %10, i32 0, i32 0
  store i64 %9, ptr %11, align 8
  %12 = getelementptr inbounds nuw %class.stopwatch, ptr %4, i32 0, i32 0
  call void @llvm.memcpy.p0.p0.i64(ptr align 8 %12, ptr align 8 %3, i64 8, i1 false), !tbaa.struct !138
  call void @llvm.lifetime.end.p0(i64 8, ptr %3) #3
  %13 = getelementptr inbounds nuw %class.stopwatch, ptr %4, i32 0, i32 2
  store i8 1, ptr %13, align 8, !tbaa !74
  br label %14

14:                                               ; preds = %8, %1
  ret void
}

; Function Attrs: mustprogress uwtable
define linkonce_odr hidden void @_ZN9stopwatch4stopEv(ptr noundef nonnull align 8 dereferenceable(17) %0) #4 comdat align 2 {
  %2 = alloca ptr, align 8
  %3 = alloca %"class.std::chrono::duration", align 8
  %4 = alloca %"class.std::chrono::time_point", align 8
  store ptr %0, ptr %2, align 8, !tbaa !72
  %5 = load ptr, ptr %2, align 8
  %6 = getelementptr inbounds nuw %class.stopwatch, ptr %5, i32 0, i32 2
  %7 = load i8, ptr %6, align 8, !tbaa !74, !range !66, !noundef !67
  %8 = trunc i8 %7 to i1
  br i1 %8, label %9, label %19

9:                                                ; preds = %1
  call void @llvm.lifetime.start.p0(i64 8, ptr %3) #3
  call void @llvm.lifetime.start.p0(i64 8, ptr %4) #3
  %10 = call i64 @_ZN9stopwatch3getEv()
  %11 = getelementptr inbounds nuw %"class.std::chrono::time_point", ptr %4, i32 0, i32 0
  %12 = getelementptr inbounds nuw %"class.std::chrono::duration", ptr %11, i32 0, i32 0
  store i64 %10, ptr %12, align 8
  %13 = getelementptr inbounds nuw %class.stopwatch, ptr %5, i32 0, i32 0
  %14 = call i64 @_ZNSt6chronomiINS_3_V212steady_clockENS_8durationIlSt5ratioILl1ELl1000000000EEEES6_EENSt11common_typeIJT0_T1_EE4typeERKNS_10time_pointIT_S8_EERKNSC_ISD_S9_EE(ptr noundef nonnull align 8 dereferenceable(8) %4, ptr noundef nonnull align 8 dereferenceable(8) %13)
  %15 = getelementptr inbounds nuw %"class.std::chrono::duration", ptr %3, i32 0, i32 0
  store i64 %14, ptr %15, align 8
  %16 = getelementptr inbounds nuw %class.stopwatch, ptr %5, i32 0, i32 1
  %17 = call noundef nonnull align 8 dereferenceable(8) ptr @_ZNSt6chrono8durationIlSt5ratioILl1ELl1000000000EEEpLERKS3_(ptr noundef nonnull align 8 dereferenceable(8) %16, ptr noundef nonnull align 8 dereferenceable(8) %3)
  call void @llvm.lifetime.end.p0(i64 8, ptr %4) #3
  call void @llvm.lifetime.end.p0(i64 8, ptr %3) #3
  %18 = getelementptr inbounds nuw %class.stopwatch, ptr %5, i32 0, i32 2
  store i8 0, ptr %18, align 8, !tbaa !74
  br label %19

19:                                               ; preds = %9, %1
  ret void
}

; Function Attrs: mustprogress uwtable
define linkonce_odr hidden void @_ZNK6spacer19spacer_arith_kernel18collect_statisticsER10statistics(ptr noundef nonnull align 8 dereferenceable(56) %0, ptr noundef nonnull align 8 dereferenceable(16) %1) unnamed_addr #4 comdat align 2 {
  %3 = alloca ptr, align 8
  %4 = alloca ptr, align 8
  store ptr %0, ptr %3, align 8, !tbaa !53
  store ptr %1, ptr %4, align 8, !tbaa !68
  %5 = load ptr, ptr %3, align 8
  %6 = load ptr, ptr %4, align 8, !tbaa !68
  %7 = getelementptr inbounds nuw %"class.spacer::spacer_arith_kernel", ptr %5, i32 0, i32 1
  %8 = getelementptr inbounds nuw %"struct.spacer::spacer_arith_kernel::stats", ptr %7, i32 0, i32 0
  %9 = load i32, ptr %8, align 8, !tbaa !75
  call void @_ZN10statistics6updateEPKcj(ptr noundef nonnull align 8 dereferenceable(16) %6, ptr noundef @.str.8, i32 noundef %9)
  %10 = getelementptr inbounds nuw %"class.spacer::spacer_arith_kernel", ptr %5, i32 0, i32 5
  %11 = call noundef zeroext i1 @_ZNK10scoped_ptrIN6spacer19spacer_arith_kernel6pluginEEcvbEv(ptr noundef nonnull align 8 dereferenceable(8) %10)
  br i1 %11, label %12, label %19

12:                                               ; preds = %2
  %13 = getelementptr inbounds nuw %"class.spacer::spacer_arith_kernel", ptr %5, i32 0, i32 5
  %14 = call noundef ptr @_ZNK10scoped_ptrIN6spacer19spacer_arith_kernel6pluginEEptEv(ptr noundef nonnull align 8 dereferenceable(8) %13)
  %15 = load ptr, ptr %4, align 8, !tbaa !68
  %16 = load ptr, ptr %14, align 8, !tbaa !56
  %17 = getelementptr inbounds ptr, ptr %16, i64 3
  %18 = load ptr, ptr %17, align 8
  call void %18(ptr noundef nonnull align 8 dereferenceable(8) %14, ptr noundef nonnull align 8 dereferenceable(16) %15)
  br label %19

19:                                               ; preds = %12, %2
  ret void
}

; Function Attrs: mustprogress uwtable
define linkonce_odr hidden noundef double @_ZNK9stopwatch11get_secondsEv(ptr noundef nonnull align 8 dereferenceable(17) %0) #4 comdat align 2 {
  %2 = alloca ptr, align 8
  %3 = alloca %"class.std::chrono::duration.37", align 8
  store ptr %0, ptr %2, align 8, !tbaa !72
  %4 = load ptr, ptr %2, align 8
  %5 = getelementptr inbounds nuw %class.stopwatch, ptr %4, i32 0, i32 2
  %6 = load i8, ptr %5, align 8, !tbaa !74, !range !66, !noundef !67
  %7 = trunc i8 %6 to i1
  br i1 %7, label %8, label %9

8:                                                ; preds = %1
  call void @_ZN9stopwatch4stopEv(ptr noundef nonnull align 8 dereferenceable(17) %4)
  call void @_ZN9stopwatch5startEv(ptr noundef nonnull align 8 dereferenceable(17) %4)
  br label %9

9:                                                ; preds = %8, %1
  call void @llvm.lifetime.start.p0(i64 8, ptr %3) #3
  %10 = getelementptr inbounds nuw %class.stopwatch, ptr %4, i32 0, i32 1
  %11 = call i64 @_ZNSt6chrono13duration_castINS_8durationIlSt5ratioILl1ELl1000EEEElS2_ILl1ELl1000000000EEEENSt9enable_ifIXsr13__is_durationIT_EE5valueES7_E4typeERKNS1_IT0_T1_EE(ptr noundef nonnull align 8 dereferenceable(8) %10)
  %12 = getelementptr inbounds nuw %"class.std::chrono::duration.37", ptr %3, i32 0, i32 0
  store i64 %11, ptr %12, align 8
  %13 = call noundef i64 @_ZNKSt6chrono8durationIlSt5ratioILl1ELl1000EEE5countEv(ptr noundef nonnull align 8 dereferenceable(8) %3)
  %14 = sitofp i64 %13 to double
  %15 = fdiv double %14, 1.000000e+03
  call void @llvm.lifetime.end.p0(i64 8, ptr %3) #3
  ret double %15
}

; Function Attrs: mustprogress uwtable
define hidden void @_ZNK6spacer14convex_closure18collect_statisticsER10statistics(ptr noundef nonnull align 8 dereferenceable(240) %0, ptr noundef nonnull align 8 dereferenceable(16) %1) #4 align 2 {
  %3 = alloca ptr, align 8
  %4 = alloca ptr, align 8
  store ptr %0, ptr %3, align 8, !tbaa !3
  store ptr %1, ptr %4, align 8, !tbaa !68
  %5 = load ptr, ptr %3, align 8
  %6 = load ptr, ptr %4, align 8, !tbaa !68
  %7 = getelementptr inbounds nuw %"class.spacer::convex_closure", ptr %5, i32 0, i32 0
  %8 = getelementptr inbounds nuw %"struct.spacer::convex_closure::stats", ptr %7, i32 0, i32 2
  %9 = call noundef double @_ZNK9stopwatch11get_secondsEv(ptr noundef nonnull align 8 dereferenceable(17) %8)
  call void @_ZN10statistics6updateEPKcd(ptr noundef nonnull align 8 dereferenceable(16) %6, ptr noundef @.str, double noundef %9)
  %10 = load ptr, ptr %4, align 8, !tbaa !68
  %11 = getelementptr inbounds nuw %"class.spacer::convex_closure", ptr %5, i32 0, i32 0
  %12 = getelementptr inbounds nuw %"struct.spacer::convex_closure::stats", ptr %11, i32 0, i32 0
  %13 = load i32, ptr %12, align 8, !tbaa !70
  call void @_ZN10statistics6updateEPKcj(ptr noundef nonnull align 8 dereferenceable(16) %10, ptr noundef @.str.1, i32 noundef %13)
  %14 = load ptr, ptr %4, align 8, !tbaa !68
  %15 = getelementptr inbounds nuw %"class.spacer::convex_closure", ptr %5, i32 0, i32 0
  %16 = getelementptr inbounds nuw %"struct.spacer::convex_closure::stats", ptr %15, i32 0, i32 1
  %17 = load i32, ptr %16, align 4, !tbaa !71
  call void @_ZN10statistics6updateEPKcj(ptr noundef nonnull align 8 dereferenceable(16) %14, ptr noundef @.str.2, i32 noundef %17)
  %18 = getelementptr inbounds nuw %"class.spacer::convex_closure", ptr %5, i32 0, i32 10
  %19 = load ptr, ptr %4, align 8, !tbaa !68
  call void @_ZNK6spacer19spacer_arith_kernel18collect_statisticsER10statistics(ptr noundef nonnull align 8 dereferenceable(56) %18, ptr noundef nonnull align 8 dereferenceable(16) %19)
  ret void
}