; Function Attrs: mustprogress uwtable
define hidden void @_ZNK6spacer14convex_closure18collect_statisticsER10statistics(ptr noundef nonnull align 8 captures(none) dereferenceable(240) %0, ptr noundef nonnull align 8 dereferenceable(16) %1) local_unnamed_addr #3 align 2 {
  %3 = getelementptr inbounds nuw i8, ptr %0, i64 24
  %4 = load i8, ptr %3, align 8, !tbaa !67, !range !68, !noundef !69
  %5 = trunc nuw i8 %4 to i1
  br i1 %5, label %_ZN9stopwatch4stopEv.exit.i, label %_ZNK9stopwatch11get_secondsEv.exit

_ZN9stopwatch4stopEv.exit.i:                      ; preds = %2
  %6 = getelementptr inbounds nuw i8, ptr %0, i64 8
  %7 = tail call i64 @_ZNSt6chrono3_V212steady_clock3nowEv() #21
  %.sroa.0.0.copyload.i2.i.i.i = load i64, ptr %6, align 8, !tbaa !70
  %8 = sub i64 %7, %.sroa.0.0.copyload.i2.i.i.i
  %9 = getelementptr inbounds nuw i8, ptr %0, i64 16
  %10 = load i64, ptr %9, align 8, !tbaa !71
  %11 = add nsw i64 %8, %10
  store i64 %11, ptr %9, align 8, !tbaa !71
  store i8 0, ptr %3, align 8, !tbaa !67
  %12 = tail call i64 @_ZNSt6chrono3_V212steady_clock3nowEv() #21
  store i64 %12, ptr %6, align 8, !tbaa !70
  store i8 1, ptr %3, align 8, !tbaa !67
  br label %_ZNK9stopwatch11get_secondsEv.exit

_ZNK9stopwatch11get_secondsEv.exit:               ; preds = %2, %_ZN9stopwatch4stopEv.exit.i
  %13 = getelementptr inbounds nuw i8, ptr %0, i64 16
  %14 = load i64, ptr %13, align 8, !tbaa !71
  %15 = sdiv i64 %14, 1000000
  %16 = sitofp i64 %15 to double
  %17 = fdiv double %16, 1.000000e+03
  tail call void @_ZN10statistics6updateEPKcd(ptr noundef nonnull align 8 dereferenceable(16) %1, ptr noundef nonnull @.str, double noundef %17)
  %18 = load i32, ptr %0, align 8, !tbaa !72
  tail call void @_ZN10statistics6updateEPKcj(ptr noundef nonnull align 8 dereferenceable(16) %1, ptr noundef nonnull @.str.1, i32 noundef %18)
  %19 = getelementptr inbounds nuw i8, ptr %0, i64 4
  %20 = load i32, ptr %19, align 4, !tbaa !73
  tail call void @_ZN10statistics6updateEPKcj(ptr noundef nonnull align 8 dereferenceable(16) %1, ptr noundef nonnull @.str.2, i32 noundef %20)
  %21 = getelementptr inbounds nuw i8, ptr %0, i64 144
  %22 = load i32, ptr %21, align 8, !tbaa !74
  tail call void @_ZN10statistics6updateEPKcj(ptr noundef nonnull align 8 dereferenceable(16) %1, ptr noundef nonnull @.str.8, i32 noundef %22)
  %23 = getelementptr inbounds nuw i8, ptr %0, i64 184
  %24 = load ptr, ptr %23, align 8, !tbaa !49
  %.not.i = icmp eq ptr %24, null
  br i1 %.not.i, label %_ZNK6spacer19spacer_arith_kernel18collect_statisticsER10statistics.exit, label %25

25:                                               ; preds = %_ZNK9stopwatch11get_secondsEv.exit
  %26 = load ptr, ptr %24, align 8, !tbaa !44
  %27 = getelementptr inbounds nuw i8, ptr %26, i64 24
  %28 = load ptr, ptr %27, align 8
  tail call void %28(ptr noundef nonnull align 8 dereferenceable(8) %24, ptr noundef nonnull align 8 dereferenceable(16) %1)
  br label %_ZNK6spacer19spacer_arith_kernel18collect_statisticsER10statistics.exit

_ZNK6spacer19spacer_arith_kernel18collect_statisticsER10statistics.exit: ; preds = %_ZNK9stopwatch11get_secondsEv.exit, %25
  ret void
}